target datalayout = "e-m:e-p270:32:32-p271:32:32-p272:64:64-i64:64-i128:128-f80:128-n8:16:32:64-S128"
target triple = "x86_64-pc-linux-gnu"

%struct.reftable_write_options = type { i8, i32, i8, i16, i32, i32, i8, i8, i64, ptr, ptr, ptr }
%struct.reftable_stack = type { %struct.stat, ptr, i32, ptr, %struct.reftable_write_options, ptr, i64, ptr, %struct.reftable_compaction_stats }
%struct.stat = type { i64, i64, i64, i32, i32, i32, i32, i64, i64, i64, i64, %struct.timespec, %struct.timespec, %struct.timespec, [3 x i64] }
%struct.timespec = type { i64, i64 }
%struct.reftable_compaction_stats = type { i64, i64, i32, i32 }
%struct.reftable_merged_table = type { ptr, i64, i32, i32, i64, i64 }

; Function Attrs: nounwind uwtable
define dso_local i32 @reftable_stack_compact_all(ptr noundef %0, ptr noundef %1) #0 {
  %3 = alloca ptr, align 8
  %4 = alloca ptr, align 8
  %5 = alloca i64, align 8
  store ptr %0, ptr %3, align 8, !tbaa !13
  store ptr %1, ptr %4, align 8, !tbaa !119
  call void @llvm.lifetime.start.p0(i64 8, ptr %5) #10
  %6 = load ptr, ptr %3, align 8, !tbaa !13
  %7 = getelementptr inbounds nuw %struct.reftable_stack, ptr %6, i32 0, i32 7
  %8 = load ptr, ptr %7, align 8, !tbaa !43
  %9 = getelementptr inbounds nuw %struct.reftable_merged_table, ptr %8, i32 0, i32 1
  %10 = load i64, ptr %9, align 8, !tbaa !68
  %11 = icmp ne i64 %10, 0
  br i1 %11, label %12, label %19

12:                                               ; preds = %2
  %13 = load ptr, ptr %3, align 8, !tbaa !13
  %14 = getelementptr inbounds nuw %struct.reftable_stack, ptr %13, i32 0, i32 7
  %15 = load ptr, ptr %14, align 8, !tbaa !43
  %16 = getelementptr inbounds nuw %struct.reftable_merged_table, ptr %15, i32 0, i32 1
  %17 = load i64, ptr %16, align 8, !tbaa !68
  %18 = sub i64 %17, 1
  br label %20

19:                                               ; preds = %2
  br label %20

20:                                               ; preds = %19, %12
  %21 = phi i64 [ %18, %12 ], [ 0, %19 ]
  store i64 %21, ptr %5, align 8, !tbaa !21
  %22 = load ptr, ptr %3, align 8, !tbaa !13
  %23 = load i64, ptr %5, align 8, !tbaa !21
  %24 = load ptr, ptr %4, align 8, !tbaa !119
  %25 = call i32 @stack_compact_range(ptr noundef %22, i64 noundef 0, i64 noundef %23, ptr noundef %24, i32 noundef 0)
  call void @llvm.lifetime.end.p0(i64 8, ptr %5) #10
  ret i32 %25
}