; Function Attrs: nounwind uwtable
define dso_local i32 @reftable_stack_compact_all(ptr noundef %0, ptr noundef %1) local_unnamed_addr #0 {
  %3 = getelementptr inbounds nuw i8, ptr %0, i64 240
  %4 = load ptr, ptr %3, align 8, !tbaa !34
  %5 = getelementptr inbounds nuw i8, ptr %4, i64 8
  %6 = load i64, ptr %5, align 8, !tbaa !36
  %spec.select = tail call i64 @llvm.usub.sat.i64(i64 %6, i64 1)
  %7 = tail call fastcc i32 @stack_compact_range(ptr noundef %0, i64 noundef 0, i64 noundef %spec.select, ptr noundef %1, i32 noundef 0)
  ret i32 %7
}